; Function Attrs: mustprogress uwtable
define void @_ZN32pxrInternal_v0_24__pxrReserved__23WorkSetConcurrencyLimitEj(i32 noundef %0) local_unnamed_addr #0 personality ptr @__gxx_personality_v0 {
  %.not = icmp eq i32 %0, 0
  br i1 %.not, label %15, label %2

2:                                                ; preds = %1
  %3 = load ptr, ptr @PXR_WORK_THREAD_LIMIT, align 8
  %4 = load atomic i64, ptr %3 seq_cst, align 8
  %.not.i.i = icmp eq i64 %4, 0
  br i1 %.not.i.i, label %5, label %_ZN32pxrInternal_v0_24__pxrReserved__15TfGetEnvSettingIiEERKT_RNS_12TfEnvSettingIS1_EE.exit.i

5:                                                ; preds = %2
  tail call void @_ZN32pxrInternal_v0_24__pxrReserved__23Tf_InitializeEnvSettingIiEEvPNS_12TfEnvSettingIT_EE(ptr noundef nonnull @PXR_WORK_THREAD_LIMIT)
  %6 = load ptr, ptr @PXR_WORK_THREAD_LIMIT, align 8
  %7 = load atomic i64, ptr %6 seq_cst, align 8
  br label %_ZN32pxrInternal_v0_24__pxrReserved__15TfGetEnvSettingIiEERKT_RNS_12TfEnvSettingIS1_EE.exit.i

_ZN32pxrInternal_v0_24__pxrReserved__15TfGetEnvSettingIiEERKT_RNS_12TfEnvSettingIS1_EE.exit.i: ; preds = %5, %2
  %.0.in.i.i = phi i64 [ %7, %5 ], [ %4, %2 ]
  %.0.i.i = inttoptr i64 %.0.in.i.i to ptr
  %8 = load i32, ptr %.0.i.i, align 4
  %9 = icmp sgt i32 %8, -1
  br i1 %9, label %_ZN32pxrInternal_v0_24__pxrReserved__L31Work_GetConcurrencyLimitSettingEv.exit, label %10

10:                                               ; preds = %_ZN32pxrInternal_v0_24__pxrReserved__15TfGetEnvSettingIiEERKT_RNS_12TfEnvSettingIS1_EE.exit.i
  %11 = tail call noundef i32 @_ZN3tbb6detail2r124numa_default_concurrencyEi(i32 noundef -1)
  %12 = add i32 %11, %8
  %.sroa.speculated.i.i = tail call i32 @llvm.smax.i32(i32 %12, i32 1)
  br label %_ZN32pxrInternal_v0_24__pxrReserved__L31Work_GetConcurrencyLimitSettingEv.exit

_ZN32pxrInternal_v0_24__pxrReserved__L31Work_GetConcurrencyLimitSettingEv.exit: ; preds = %_ZN32pxrInternal_v0_24__pxrReserved__15TfGetEnvSettingIiEERKT_RNS_12TfEnvSettingIS1_EE.exit.i, %10
  %13 = phi i32 [ %.sroa.speculated.i.i, %10 ], [ %8, %_ZN32pxrInternal_v0_24__pxrReserved__15TfGetEnvSettingIiEERKT_RNS_12TfEnvSettingIS1_EE.exit.i ]
  %.not.i = icmp eq i32 %13, 0
  %14 = select i1 %.not.i, i32 %0, i32 %13
  br label %19

15:                                               ; preds = %1
  %16 = tail call noundef i64 @_ZN3tbb6detail2r127global_control_active_valueEi(i32 noundef 0)
  %17 = trunc i64 %16 to i32
  %18 = tail call noundef i32 @_ZN3tbb6detail2r115max_concurrencyEPKNS0_2d115task_arena_baseE(ptr noundef null)
  %.sroa.speculated.i = tail call noundef i32 @llvm.umin.i32(i32 %18, i32 %17)
  br label %19

19:                                               ; preds = %15, %_ZN32pxrInternal_v0_24__pxrReserved__L31Work_GetConcurrencyLimitSettingEv.exit
  %.0 = phi i32 [ %14, %_ZN32pxrInternal_v0_24__pxrReserved__L31Work_GetConcurrencyLimitSettingEv.exit ], [ %.sroa.speculated.i, %15 ]
  %20 = load ptr, ptr @_ZN32pxrInternal_v0_24__pxrReserved__L17_tbbGlobalControlE, align 8
  %21 = icmp eq ptr %20, null
  br i1 %21, label %26, label %22

22:                                               ; preds = %19
  invoke void @_ZN3tbb6detail2r17destroyERNS0_2d114global_controlE(ptr noundef nonnull align 8 dereferenceable(20) %20)
          to label %_ZN3tbb6detail2d114global_controlD2Ev.exit unwind label %23

23:                                               ; preds = %22
  %24 = landingpad { ptr, i32 }
          catch ptr null
  %25 = extractvalue { ptr, i32 } %24, 0
  tail call void @__clang_call_terminate(ptr %25) #10
  unreachable

_ZN3tbb6detail2d114global_controlD2Ev.exit:       ; preds = %22
  tail call void @_ZdlPvm(ptr noundef nonnull %20, i64 noundef 24) #11
  br label %26

26:                                               ; preds = %_ZN3tbb6detail2d114global_controlD2Ev.exit, %19
  %27 = tail call noalias noundef nonnull dereferenceable(24) ptr @_Znwm(i64 noundef 24) #12
  %28 = zext i32 %.0 to i64
  store i64 %28, ptr %27, align 8
  %29 = getelementptr inbounds nuw i8, ptr %27, i64 8
  store i64 0, ptr %29, align 8
  %30 = getelementptr inbounds nuw i8, ptr %27, i64 16
  store i32 0, ptr %30, align 8
  %.not.i7 = icmp eq i32 %.0, 0
  br i1 %.not.i7, label %31, label %.noexc

31:                                               ; preds = %26
  invoke void @_ZN3tbb6detail2r117assertion_failureEPKciS3_S3_(ptr noundef nonnull @__func__._ZN3tbb6detail2d114global_controlC2ENS2_9parameterEm, i32 noundef 76, ptr noundef nonnull @.str.6, ptr noundef nonnull @.str.7)
          to label %.noexc unwind label %32

.noexc:                                           ; preds = %31, %26
  invoke void @_ZN3tbb6detail2r16createERNS0_2d114global_controlE(ptr noundef nonnull align 8 dereferenceable(20) %27)
          to label %_ZN3tbb6detail2d114global_controlC2ENS2_9parameterEm.exit unwind label %32

_ZN3tbb6detail2d114global_controlC2ENS2_9parameterEm.exit: ; preds = %.noexc
  store ptr %27, ptr @_ZN32pxrInternal_v0_24__pxrReserved__L17_tbbGlobalControlE, align 8
  ret void

32:                                               ; preds = %.noexc, %31
  %33 = landingpad { ptr, i32 }
          cleanup
  tail call void @_ZdlPvm(ptr noundef nonnull %27, i64 noundef 24) #11
  resume { ptr, i32 } %33
}